; Function Attrs: mustprogress nofree norecurse nosync nounwind willreturn memory(read, inaccessiblemem: none) uwtable
define hidden noundef i64 @_ZN14G1GCPhaseTimes20get_thread_work_itemENS_11GCParPhasesEjj(ptr nocapture noundef nonnull readonly align 8 dereferenceable(872) %0, i32 noundef %1, i32 noundef %2, i32 noundef %3) local_unnamed_addr #6 align 2 {
  %5 = getelementptr inbounds i8, ptr %0, i64 24
  %6 = zext i32 %1 to i64
  %7 = getelementptr inbounds [45 x ptr], ptr %5, i64 0, i64 %6
  %8 = load ptr, ptr %7, align 8
  %9 = getelementptr inbounds i8, ptr %8, i64 40
  %10 = zext i32 %3 to i64
  %11 = getelementptr inbounds [9 x ptr], ptr %9, i64 0, i64 %10
  %12 = load ptr, ptr %11, align 8
  %13 = load ptr, ptr %12, align 8
  %14 = zext i32 %2 to i64
  %15 = getelementptr inbounds i64, ptr %13, i64 %14
  %16 = load i64, ptr %15, align 8
  ret i64 %16
}